target datalayout = "e-m:e-p270:32:32-p271:32:32-p272:64:64-i64:64-i128:128-f80:128-n8:16:32:64-S128"
target triple = "x86_64-pc-linux-gnu"

; Function Attrs: nounwind uwtable
define internal void @put_signed_pixels_clamped_c(ptr noundef %0, ptr noalias noundef %1, i64 noundef %2) #3 {
  %4 = alloca ptr, align 8
  %5 = alloca ptr, align 8
  %6 = alloca i64, align 8
  %7 = alloca i32, align 4
  %8 = alloca i32, align 4
  store ptr %0, ptr %4, align 8, !tbaa !18
  store ptr %1, ptr %5, align 8, !tbaa !4
  store i64 %2, ptr %6, align 8, !tbaa !20
  call void @llvm.lifetime.start.p0(i64 4, ptr %7) #5
  call void @llvm.lifetime.start.p0(i64 4, ptr %8) #5
  store i32 0, ptr %7, align 4, !tbaa !9
  br label %9

9:                                                ; preds = %51, %3
  %10 = load i32, ptr %7, align 4, !tbaa !9
  %11 = icmp slt i32 %10, 8
  br i1 %11, label %12, label %54

12:                                               ; preds = %9
  store i32 0, ptr %8, align 4, !tbaa !9
  br label %13

13:                                               ; preds = %43, %12
  %14 = load i32, ptr %8, align 4, !tbaa !9
  %15 = icmp slt i32 %14, 8
  br i1 %15, label %16, label %46

16:                                               ; preds = %13
  %17 = load ptr, ptr %4, align 8, !tbaa !18
  %18 = load i16, ptr %17, align 2, !tbaa !22
  %19 = sext i16 %18 to i32
  %20 = icmp slt i32 %19, -128
  br i1 %20, label %21, label %23

21:                                               ; preds = %16
  %22 = load ptr, ptr %5, align 8, !tbaa !4
  store i8 0, ptr %22, align 1, !tbaa !11
  br label %38

23:                                               ; preds = %16
  %24 = load ptr, ptr %4, align 8, !tbaa !18
  %25 = load i16, ptr %24, align 2, !tbaa !22
  %26 = sext i16 %25 to i32
  %27 = icmp sgt i32 %26, 127
  br i1 %27, label %28, label %30

28:                                               ; preds = %23
  %29 = load ptr, ptr %5, align 8, !tbaa !4
  store i8 -1, ptr %29, align 1, !tbaa !11
  br label %37

30:                                               ; preds = %23
  %31 = load ptr, ptr %4, align 8, !tbaa !18
  %32 = load i16, ptr %31, align 2, !tbaa !22
  %33 = sext i16 %32 to i32
  %34 = add nsw i32 %33, 128
  %35 = trunc i32 %34 to i8
  %36 = load ptr, ptr %5, align 8, !tbaa !4
  store i8 %35, ptr %36, align 1, !tbaa !11
  br label %37

37:                                               ; preds = %30, %28
  br label %38

38:                                               ; preds = %37, %21
  %39 = load ptr, ptr %4, align 8, !tbaa !18
  %40 = getelementptr inbounds nuw i16, ptr %39, i32 1
  store ptr %40, ptr %4, align 8, !tbaa !18
  %41 = load ptr, ptr %5, align 8, !tbaa !4
  %42 = getelementptr inbounds nuw i8, ptr %41, i32 1
  store ptr %42, ptr %5, align 8, !tbaa !4
  br label %43

43:                                               ; preds = %38
  %44 = load i32, ptr %8, align 4, !tbaa !9
  %45 = add nsw i32 %44, 1
  store i32 %45, ptr %8, align 4, !tbaa !9
  br label %13, !llvm.loop !57

46:                                               ; preds = %13
  %47 = load i64, ptr %6, align 8, !tbaa !20
  %48 = sub nsw i64 %47, 8
  %49 = load ptr, ptr %5, align 8, !tbaa !4
  %50 = getelementptr inbounds i8, ptr %49, i64 %48
  store ptr %50, ptr %5, align 8, !tbaa !4
  br label %51

51:                                               ; preds = %46
  %52 = load i32, ptr %7, align 4, !tbaa !9
  %53 = add nsw i32 %52, 1
  store i32 %53, ptr %7, align 4, !tbaa !9
  br label %9, !llvm.loop !58

54:                                               ; preds = %9
  call void @llvm.lifetime.end.p0(i64 4, ptr %8) #5
  call void @llvm.lifetime.end.p0(i64 4, ptr %7) #5
  ret void
}