; Function Attrs: nofree norecurse nosync nounwind memory(argmem: readwrite) uwtable
define internal void @put_signed_pixels_clamped_c(ptr noundef readonly captures(none) %0, ptr noalias noundef writeonly captures(none) %1, i64 noundef %2) #3 {
  br label %.preheader

.preheader:                                       ; preds = %3, %13
  %.01323 = phi i32 [ 0, %3 ], [ %16, %13 ]
  %.01422 = phi ptr [ %0, %3 ], [ %10, %13 ]
  %.01521 = phi ptr [ %1, %3 ], [ %15, %13 ]
  br label %4

4:                                                ; preds = %.preheader, %4
  %.020 = phi i32 [ 0, %.preheader ], [ %12, %4 ]
  %.119 = phi ptr [ %.01422, %.preheader ], [ %10, %4 ]
  %.11618 = phi ptr [ %.01521, %.preheader ], [ %11, %4 ]
  %5 = load i16, ptr %.119, align 2, !tbaa !13
  %6 = trunc i16 %5 to i8
  %7 = icmp slt i16 %5, -128
  %8 = icmp sgt i16 %5, 127
  %9 = xor i8 %6, -128
  %spec.select = select i1 %8, i8 -1, i8 %9
  %.sink = select i1 %7, i8 0, i8 %spec.select
  store i8 %.sink, ptr %.11618, align 1, !tbaa !4
  %10 = getelementptr inbounds nuw i8, ptr %.119, i64 2
  %11 = getelementptr inbounds nuw i8, ptr %.11618, i64 1
  %12 = add nuw nsw i32 %.020, 1
  %exitcond.not = icmp eq i32 %12, 8
  br i1 %exitcond.not, label %13, label %4, !llvm.loop !65

13:                                               ; preds = %4
  %14 = getelementptr i8, ptr %11, i64 %2
  %15 = getelementptr i8, ptr %14, i64 -8
  %16 = add nuw nsw i32 %.01323, 1
  %exitcond25.not = icmp eq i32 %16, 8
  br i1 %exitcond25.not, label %17, label %.preheader, !llvm.loop !66

17:                                               ; preds = %13
  ret void
}